(dp1
S'HLA-C1502'
p2
I181
sS'Mamu-A0201'
p3
I1358
sS'HLA-B4405'
p4
I20
sS'HLA-B4401'
p5
I78
sS'HLA-B3508'
p6
I191
sS'HLA-B4402'
p7
I2232
sS'HLA-C0501'
p8
I220
sS'HLA-A2401'
p9
I98
sS'HLA-A2402'
p10
I5854
sS'HLA-A2403'
p11
I1431
sS'HLA-B5101'
p12
I2953
sS'Mamu-A1101'
p13
I1261
sS'HLA-B4001'
p14
I4337
sS'HLA-A3101'
p15
I6280
sS'HLA-A6601'
p16
I102
sS'Mamu-A0701'
p17
I681
sS'SLA20401'
p18
I11
sS'BOLA20801'
p19
I14
sS'Patr-A0501'
p20
I4
sS'Mamu-B1704'
p21
I1453
sS'Mamu-B1701'
p22
I1650
sS'HLA-B5802'
p23
I53
sS'HLA-B3701'
p24
I114
sS'HLA-B5801'
p25
I4422
sS'HLA-B5701'
p26
I2914
sS'EQCAN0602'
p27
I20
sS'HLA-B5703'
p28
I38
sS'HLA-B5702'
p29
I26
sS'HLA-B4403'
p30
I1493
sS'HLA-B8301'
p31
I338
sS'GOGOB0101'
p32
I15
sS'HLA-CW0401'
p33
I16
sS'HLA-A3201'
p34
I1136
sS'Patr-B1301'
p35
I255
sS'HLA-A3207'
p36
I87
sS'HLA-A2602'
p37
I643
sS'HLA-A2603'
p38
I537
sS'HLA-A2601'
p39
I5233
sS'HLA-A0301'
p40
I9651
sS'HLA-A0302'
p41
I26
sS'HLA-B1503'
p42
I705
sS'HLA-B1502'
p43
I210
sS'HLA-B1501'
p44
I6550
sS'HLA-BF021201'
p45
I12
sS'HLA-B4013'
p46
I58
sS'HLA-B1509'
p47
I845
sS'HLA-B2720'
p48
I91
sS'HLA-C0602'
p49
I413
sS'Patr-B0901'
p50
I48
sS'HLA-B6201'
p51
I37
sS'HLA-C1402'
p52
I316
sS'Patr-A0101'
p53
I455
sS'Mamu-B6502'
p54
I17
sS'Mamu-B6601'
p55
I101
sS'HLA-B4202'
p56
I21
sS'HLA-E0103'
p57
I67
sS'HLA-BF020401'
p58
I33
sS'HLA-B4201'
p59
I218
sS'HLA-A2501'
p60
I960
sS'HLA-A6823'
p61
I82
sS'Mamu-B0401'
p62
I9
sS'HLA-A0319'
p63
I30
sS'Patr-B1701'
p64
I8
sS'HLA-B3801'
p65
I526
sS'Mamu-A0111'
p66
I960
sS'HLA-B1516'
p67
I46
sS'HLA-B1517'
p68
I1452
sS'HLA-B1510'
p69
I21
sS'HLA-A0250'
p70
I135
sS'HLA-SLA01'
p71
I8
sS'HLA-B1201'
p72
I7
sS'Patr-A0301'
p73
I379
sS'HLA-C0304'
p74
I337
sS'HLA-C0303'
p75
I164
sS'H-2-KK'
p76
I634
sS'HLA-A2301'
p77
I2586
sS'HLA-B6101'
p78
I15
sS'H-2-KB'
p79
I6159
sS'H-2-KD'
p80
I1746
sS'HLA-B4601'
p81
I1833
sS'HLA-BF022101'
p82
I37
sS'ELAA0101'
p83
I21
sS'HLA-A2901'
p84
I15
sS'HLA-A2902'
p85
I2738
sS'HLA-B2704'
p86
I91
sS'HLA-B2705'
p87
I4402
sS'HLA-B2706'
p88
I87
sS'HLA-B2701'
p89
I276
sS'HLA-B2702'
p90
I52
sS'HLA-B2703'
p91
I912
sS'HLA-B2709'
p92
I47
sS'HLA-B4002'
p93
I1087
sS'HLA-B1542'
p94
I363
sS'HLA-B0702'
p95
I6938
sS'HLA-C0702'
p96
I169
sS'HLA-C0701'
p97
I461
sS'HLA-B0701'
p98
I297
sS'HLA-B0801'
p99
I4463
sS'HLA-B0803'
p100
I470
sS'HLA-B0802'
p101
I1019
sS'Mamu-B0101'
p102
I889
sS'Mamu-B1001'
p103
I159
sS'HLA-A6801'
p104
I4385
sS'HLA-A6802'
p105
I7752
sS'HLA-B5502'
p106
I28
sS'HLA-B5501'
p107
I4
sS'Mamu-B8301'
p108
I432
sS'BOLA21201'
p109
I55
sS'Mamu-A2201'
p110
I689
sS'HLA-B3906'
p111
I33
sS'HLA-B3901'
p112
I1692
sS'Mamu-A070103'
p113
I102
sS'HLA-BF010201'
p114
I2
sS'HLA-A0101'
p115
I6209
sS'HLA-RT0101'
p116
I139
sS'BOLAA1101'
p117
I40
sS'HLA-B5201'
p118
I25
sS'HLA-B1402'
p119
I223
sS'HLA-B1401'
p120
I42
sS'Patr-A0701'
p121
I612
sS'HLA-A3002'
p122
I2514
sS'HLA-A3001'
p123
I3237
sS'Mamu-B3901'
p124
I459
sS'HLA-B3501'
p125
I4269
sS'HLA-B3503'
p126
I290
sS'EQCA10101'
p127
I678
sS'Mamu-B5201'
p128
I894
sS'HLA-A7401'
p129
I9
sS'HLA-B8101'
p130
I30
sS'Mamu-B0801'
p131
I1127
sS'HLA-C0801'
p132
I44
sS'HLA-C0802'
p133
I135
sS'H-2-LQ'
p134
I16
sS'HLA-B4506'
p135
I361
sS'HLA-B4501'
p136
I1090
sS'Mamu-A0101'
p137
I2838
sS'HLA-B5401'
p138
I1236
sS'Patr-A0601'
p139
I4
sS'DLA8850801'
p140
I20
sS'HLA-C0401'
p141
I522
sS'H-2-LD'
p142
I586
sS'Patr-B2401'
p143
I324
sS'HLA-B1801'
p144
I2757
sS'Mamu-A0102'
p145
I625
sS'BOLA64101'
p146
I2
sS'HLA-A6901'
p147
I3031
sS'HLA-A0212'
p148
I1183
sS'HLA-A0211'
p149
I1088
sS'H-2-DK'
p150
I7
sS'HLA-A0217'
p151
I346
sS'HLA-A0216'
p152
I920
sS'HLA-A1102'
p153
I14
sS'HLA-A0214'
p154
I12
sS'H-2-DB'
p155
I5914
sS'H-2-DD'
p156
I514
sS'HLA-BF020201'
p157
I4
sS'SLA30202'
p158
I23
sS'Patr-A0401'
p159
I327
sS'Patr-B0101'
p160
I792
sS'Mamu-A2601'
p161
I206
sS'HLA-B4801'
p162
I883
sS'SLA10401'
p163
I70
sS'Mamu-B8701'
p164
I155
sS'BOLA61301'
p165
I92
sS'HLA-B5301'
p166
I1797
sS'HLA-A3301'
p167
I3692
sS'HLA-C1203'
p168
I172
sS'HLA-A3303'
p169
I18
sS'Mamu-B0301'
p170
I1147
sS'HLA-A1101'
p171
I8601
sS'HLA-A0204'
p172
I9
sS'HLA-A0205'
p173
I130
sS'HLA-A0206'
p174
I7864
sS'HLA-A0207'
p175
I125
sS'HLA-A0201'
p176
I26602
sS'HLA-A0202'
p177
I6378
sS'HLA-A0203'
p178
I8513
sS'Patr-A0602'
p179
I41
sS'HLA-A3215'
p180
I74
sS'HLA-A0208'
p181
I5
sS'HLA-A0209'
p182
I5
sS'HLA-A8001'
p183
I1167
sS'HLA-B7301'
p184
I131
sS'Patr-A0901'
p185
I656
sS'Mamu-A020102'
p186
I146
sS'HLA-A0219'
p187
I1245
s.