(dp1
S'HLA-DRB50102'
p2
I0
sS'HLA-C1502'
p3
I181
sS'Mamu-A0201'
p4
I1358
sS'HLA-B4405'
p5
I20
sS'HLA-DQA10302-DQB10301'
p6
I0
sS'HLA-B4401'
p7
I78
sS'HLA-B3508'
p8
I191
sS'HLA-B4402'
p9
I2232
sS'HLA-DQA10201-DQB10202'
p10
I0
sS'HLA-B3501'
p11
I4269
sS'HLA-DRB11402'
p12
I0
sS'HLA-DPA10202-DPB10501'
p13
I0
sS'HLA-DQA10103-DQB10603'
p14
I0
sS'HLA-DPA10201-DPB10101'
p15
I0
sS'HLA-DRB30301'
p16
I0
sS'HLA-C0501'
p17
I220
sS'HLA-A2401'
p18
I98
sS'HLA-A2402'
p19
I5854
sS'HLA-A2403'
p20
I1431
sS'HLA-B3503'
p21
I290
sS'HLA-DQA10301-DQB10401'
p22
I0
sS'Mamu-A1101'
p23
I1261
sS'Mamu-B1704'
p24
I1453
sS'HLA-B4001'
p25
I4337
sS'HLA-A3101'
p26
I6280
sS'HLA-DRA0101-DRB30101'
p27
I0
sS'HLA-DPA10103-DPB10402'
p28
I0
sS'HLA-DRB11302'
p29
I0
sS'HLA-DPA10103-DPB10401'
p30
I0
sS'EQCA10101'
p31
I0
sS'HLA-A6601'
p32
I102
sS'Mamu-A0701'
p33
I681
sS'Mamu-B5201'
p34
I894
sS'HLA-DRA0101-DRB10301'
p35
I0
sS'BOLA20801'
p36
I0
sS'Patr-A0501'
p37
I4
sS'H-2-IEd'
p38
I0
sS'H-2-IEb'
p39
I0
sS'Mamu-B1701'
p40
I1650
sS'Mamu-B0801'
p41
I1127
sS'HLA-B5802'
p42
I53
sS'HLA-B3701'
p43
I114
sS'HLA-B5801'
p44
I4422
sS'H-2-IEk'
p45
I0
sS'EQCAN0602'
p46
I0
sS'HLA-B5703'
p47
I38
sS'HLA-B5702'
p48
I26
sS'HLA-DQA10301-DQB10301'
p49
I0
sS'HLA-DQA10301-DQB10302'
p50
I0
sS'H-2-IEr'
p51
I0
sS'H-2-IEp'
p52
I0
sS'HLA-B8301'
p53
I338
sS'HLA-B0802'
p54
I1019
sS'HLA-CW0401'
p55
I16
sS'HLA-A3201'
p56
I1136
sS'HLA-DRB10405'
p57
I0
sS'HLA-DQA10501-DQB10201'
p58
I0
sS'HLA-A3207'
p59
I87
sS'HLA-DRB11401'
p60
I0
sS'HLA-A2602'
p61
I643
sS'HLA-A2603'
p62
I537
sS'HLA-A2601'
p63
I5233
sS'HLA-A0301'
p64
I9651
sS'HLA-A0302'
p65
I26
sS'HLA-B1503'
p66
I705
sS'HLA-B1502'
p67
I210
sS'HLA-B1501'
p68
I6550
sS'HLA-DQA10201-DQB10201'
p69
I0
sS'HLA-BF021201'
p70
I12
sS'HLA-DRA0101-DRB11454'
p71
I0
sS'HLA-B4013'
p72
I58
sS'HLA-DPB10501'
p73
I0
sS'HLA-B1509'
p74
I845
sS'HLA-B2720'
p75
I91
sS'Patr-A0901'
p76
I656
sS'HLA-B4403'
p77
I1493
sS'HLA-DRB10404'
p78
I0
sS'HLA-DPB10301'
p79
I0
sS'BoLA-DRB31101'
p80
I0
sS'HLA-DPB10201'
p81
I0
sS'HLA-DQB10602'
p82
I0
sS'BoLA-DRB30201'
p83
I0
sS'HLA-DQA10401-DQB10402'
p84
I0
sS'HLA-DQA10201-DQB10301'
p85
I0
sS'HLA-B6201'
p86
I37
sS'HLA-C1402'
p87
I316
sS'Patr-A0101'
p88
I455
sS'HLA-DRB10305'
p89
I0
sS'HLA-DQA10302-DQB10401'
p90
I0
sS'HLA-DQB10503'
p91
I0
sS'HLA-DRB10302'
p92
I0
sS'HLA-B4202'
p93
I21
sS'HLA-B5101'
p94
I2953
sS'HLA-BF020401'
p95
I33
sS'HLA-DRB10901'
p96
I0
sS'HLA-DQA10104-DQB10503'
p97
I0
sS'HLA-B4201'
p98
I218
sS'HLA-DRB11301'
p99
I0
sS'HLA-A2501'
p100
I960
sS'HLA-A6823'
p101
I82
sS'Mamu-B0401'
p102
I9
sS'HLA-DQB10201'
p103
I0
sS'Mamu-A0102'
p104
I625
sS'HLA-A0319'
p105
I30
sS'Patr-B1701'
p106
I8
sS'HLA-DPB11101'
p107
I0
sS'HLA-B3801'
p108
I526
sS'HLA-DPB10101'
p109
I0
sS'Patr-A0701'
p110
I612
sS'HLA-B1516'
p111
I46
sS'HLA-B1517'
p112
I1452
sS'HLA-B1510'
p113
I21
sS'HLA-DRB10701'
p114
I0
sS'HLA-A0250'
p115
I135
sS'HLA-SLA01'
p116
I8
sS'Patr-B0901'
p117
I48
sS'HLA-B1201'
p118
I7
sS'HLA-DPA10103-DPB10201'
p119
I0
sS'HLA-DQA10301-DQB10201'
p120
I0
sS'Patr-A0301'
p121
I379
sS'HLA-C0304'
p122
I337
sS'HLA-C0303'
p123
I164
sS'BoLA-DRB31201'
p124
I0
sS'H-2-KK'
p125
I0
sS'Mamu-B6502'
p126
I17
sS'HLA-A2301'
p127
I2586
sS'HLA-B6101'
p128
I15
sS'H-2-KB'
p129
I0
sS'H-2-KD'
p130
I0
sS'HLA-B4601'
p131
I1833
sS'Patr-A0401'
p132
I327
sS'HLA-BF022101'
p133
I37
sS'HLA-DQA10102-DQB10501'
p134
I0
sS'Mamu-A0101'
p135
I2838
sS'HLA-DQA10102-DQB10502'
p136
I0
sS'HLA-DRB11601'
p137
I0
sS'ELAA0101'
p138
I0
sS'HLA-DQA10601-DQB10402'
p139
I0
sS'HLA-A2901'
p140
I15
sS'HLA-DRA0101-DRB11501'
p141
I0
sS'HLA-DRA0101-DRB10801'
p142
I0
sS'HLA-A2902'
p143
I2738
sS'HLA-B2704'
p144
I91
sS'HLA-B2705'
p145
I4402
sS'HLA-B2706'
p146
I87
sS'HLA-DQB10302'
p147
I0
sS'HLA-B2701'
p148
I276
sS'HLA-B2702'
p149
I52
sS'HLA-B2703'
p150
I912
sS'HLA-DRB10411'
p151
I0
sS'HLA-B2709'
p152
I47
sS'HLA-DRB30202'
p153
I0
sS'HLA-DRB11602'
p154
I0
sS'HLA-C0602'
p155
I413
sS'HLA-B4002'
p156
I1087
sS'HLA-B1542'
p157
I363
sS'Mamu-A070103'
p158
I102
sS'HLA-B0702'
p159
I6938
sS'HLA-C0702'
p160
I169
sS'HLA-C0701'
p161
I461
sS'HLA-B0701'
p162
I297
sS'HLA-B0801'
p163
I4463
sS'HLA-DRB40101'
p164
I0
sS'HLA-B0803'
p165
I470
sS'GOGOB0101'
p166
I0
sS'Mamu-B0101'
p167
I889
sS'HLA-DQB10301'
p168
I0
sS'HLA-DRB10303'
p169
I0
sS'Patr-B1301'
p170
I255
sS'Mamu-B1001'
p171
I159
sS'HLA-A6801'
p172
I4385
sS'HLA-A6802'
p173
I7752
sS'HLA-B5502'
p174
I28
sS'HLA-B5501'
p175
I4
sS'HLA-DRB10103'
p176
I0
sS'HLA-DRA0101-DRB10101'
p177
I0
sS'Mamu-DRB10406'
p178
I0
sS'BOLA21201'
p179
I0
sS'HLA-DRB30101'
p180
I0
sS'SLA20401'
p181
I0
sS'Mamu-A2201'
p182
I689
sS'HLA-DRA0101-DRB40103'
p183
I0
sS'HLA-RT1101'
p184
I0
sS'HLA-DQA10201-DQB10303'
p185
I0
sS'HLA-B3906'
p186
I33
sS'HLA-B3901'
p187
I1692
sS'HLA-DPA10201-DPB10501'
p188
I0
sS'HLA-DRB10403'
p189
I0
sS'HLA-DRB10402'
p190
I0
sS'HLA-DRB10401'
p191
I0
sS'HLA-DQA10303-DQB10402'
p192
I0
sS'HLA-BF010201'
p193
I2
sS'HLA-DRB10406'
p194
I0
sS'HLA-A0101'
p195
I6209
sS'HLA-DPB10901'
p196
I0
sS'H-2-IAk'
p197
I0
sS'HLA-RT0101'
p198
I139
sS'BOLAA1101'
p199
I0
sS'HLA-DRA0101-DRB11101'
p200
I0
sS'HLA-DRB50101'
p201
I0
sS'HLA-B5201'
p202
I25
sS'HLA-B1402'
p203
I223
sS'H-2-IAb'
p204
I0
sS'HLA-B1401'
p205
I42
sS'H-2-IAd'
p206
I0
sS'HLA-A3002'
p207
I2514
sS'HLA-A3001'
p208
I3237
sS'Mamu-B3901'
p209
I459
sS'H-2-IAs'
p210
I0
sS'H-2-IAr'
p211
I0
sS'H-2-IAq'
p212
I0
sS'H-2-IAp'
p213
I0
sS'HLA-DQA10103-DQB10601'
p214
I0
sS'H-2-IAu'
p215
I0
sS'HLA-DRB10802'
p216
I0
sS'HLA-DRB40103'
p217
I0
sS'HLA-A7401'
p218
I9
sS'HLA-B8101'
p219
I30
sS'HLA-DRA0101-DRB10901'
p220
I0
sS'HLA-DRB10407'
p221
I0
sS'HLA-DRB11001'
p222
I0
sS'HLA-DPA10301-DPB10402'
p223
I0
sS'HLA-DQB10501'
p224
I0
sS'HLA-C0801'
p225
I44
sS'HLA-C0802'
p226
I135
sS'HLA-DQB10502'
p227
I0
sS'HLA-DQA10501-DQB10402'
p228
I0
sS'HLA-DQA10101-DQB10501'
p229
I0
sS'HLA-DPB11401'
p230
I0
sS'HLA-DRA0101-DRB10701'
p231
I0
sS'HLA-DQA10102-DQB10604'
p232
I0
sS'HLA-DRA0101-DRB30301'
p233
I0
sS'HLA-DQA10102-DQB10602'
p234
I0
sS'HLA-DRB10301'
p235
I0
sS'H-2-LQ'
p236
I0
sS'HLA-B4506'
p237
I361
sS'HLA-DRB10102'
p238
I0
sS'HLA-B4501'
p239
I1090
sS'HLA-DRB10101'
p240
I0
sS'HLA-DRB11501'
p241
I0
sS'HLA-DQA10501-DQB10302'
p242
I0
sS'HLA-DRB11503'
p243
I0
sS'HLA-B5401'
p244
I1236
sS'Patr-A0601'
p245
I4
sS'DLA8850801'
p246
I0
sS'HLA-C0401'
p247
I522
sS'HLA-DQA10505-DQB10301'
p248
I0
sS'H-2-LD'
p249
I0
sS'HLA-DRA0101-DRB50101'
p250
I0
sS'Patr-B2401'
p251
I324
sS'HLA-B1801'
p252
I2757
sS'HLA-DRB11202'
p253
I0
sS'HLA-DQA10501-DQB10301'
p254
I0
sS'__init__'
p255
I0
sS'BOLA64101'
p256
I0
sS'HLA-A6901'
p257
I3031
sS'HLA-A0212'
p258
I1183
sS'HLA-A0211'
p259
I1088
sS'H-2-DK'
p260
I0
sS'HLA-A0217'
p261
I346
sS'HLA-A0216'
p262
I920
sS'HLA-A1102'
p263
I14
sS'HLA-A0214'
p264
I12
sS'HLA-DQA10501-DQB10303'
p265
I0
sS'HLA-DRB11303'
p266
I0
sS'H-2-DB'
p267
I0
sS'HLA-DRB11201'
p268
I0
sS'H-2-DD'
p269
I0
sS'Mamu-A0111'
p270
I960
sS'HLA-BF020201'
p271
I4
sS'Mamu-DRB01'
p272
I0
sS'HLA-DRB10801'
p273
I0
sS'SLA30202'
p274
I0
sS'HLA-DRA0101-DRB11301'
p275
I0
sS'Patr-B0101'
p276
I792
sS'HLA-DRB11502'
p277
I0
sS'Mamu-A2601'
p278
I206
sS'HLA-B4801'
p279
I883
sS'HLA-DQB10202'
p280
I0
sS'HLA-DRB11104'
p281
I0
sS'HLA-DPA10103-DPB10301'
p282
I0
sS'SLA10401'
p283
I0
sS'HLA-DQA10201-DQB10402'
p284
I0
sS'Mamu-B8701'
p285
I155
sS'HLA-B5701'
p286
I2914
sS'HLA-DPB12001'
p287
I0
sS'HLA-DRB11101'
p288
I0
sS'HLA-DRB11103'
p289
I0
sS'HLA-DRB11102'
p290
I0
sS'HLA-DQB10319'
p291
I0
sS'HLA-DRA0101-DRB10401'
p292
I0
sS'BOLA61301'
p293
I0
sS'HLA-DRA0101-DRB10404'
p294
I0
sS'HLA-B5301'
p295
I1797
sS'HLA-A3301'
p296
I3692
sS'HLA-C1203'
p297
I172
sS'HLA-A3303'
p298
I18
sS'Mamu-B0301'
p299
I1147
sS'HLA-A1101'
p300
I8601
sS'HLA-A0204'
p301
I9
sS'HLA-A0205'
p302
I130
sS'HLA-A0206'
p303
I7864
sS'HLA-A0207'
p304
I125
sS'HLA-DRB10803'
p305
I0
sS'HLA-A0201'
p306
I26602
sS'HLA-A0202'
p307
I6378
sS'HLA-A0203'
p308
I8513
sS'Patr-A0602'
p309
I41
sS'HLA-E0103'
p310
I67
sS'HLA-A3215'
p311
I74
sS'HLA-A0208'
p312
I5
sS'HLA-A0209'
p313
I5
sS'HLA-A8001'
p314
I1167
sS'HLA-DPB10401'
p315
I0
sS'HLA-B7301'
p316
I131
sS'HLA-DPB10402'
p317
I0
sS'HLA-DRB11304'
p318
I0
sS'Mamu-B8301'
p319
I432
sS'HLA-DQB10402'
p320
I0
sS'Mamu-A020102'
p321
I146
sS'HLA-A0219'
p322
I1245
sS'Mamu-B6601'
p323
I101
sS'HLA-DRA0101-DRB30202'
p324
I0
s.