(dp1
S'HLA-B44:01'
p2
I494297
sS'HLA-B44:02'
p3
I494297
sS'HLA-B44:03'
p4
I494297
sS'HLA-C03:03'
p5
I494297
sS'HLA-A11:01'
p6
I494297
sS'HLA-A69:01'
p7
I494297
sS'HLA-B27:06'
p8
I494297
sS'HLA-B27:05'
p9
I494297
sS'HLA-B27:04'
p10
I494297
sS'HLA-B27:03'
p11
I494297
sS'HLA-B27:02'
p12
I494297
sS'HLA-B27:01'
p13
I494297
sS'HLA-B15:17'
p14
I494297
sS'HLA-B15:16'
p15
I494297
sS'HLA-B27:09'
p16
I494297
sS'HLA-B38:01'
p17
I494297
sS'HLA-C15:02'
p18
I494297
sS'HLA-RT01:01'
p19
I98893
sS'HLA-C12:03'
p20
I494297
sS'HLA-A32:01'
p21
I494297
sS'HLA-A32:07'
p22
I494297
sS'HLA-A68:23'
p23
I494297
sS'HLA-B73:01'
p24
I494297
sS'HLA-C08:02'
p25
I494297
sS'HLA-C08:01'
p26
I494297
sS'HLA-BF02:0401'
p27
I98893
sS'HLA-C03:04'
p28
I494297
sS'HLA-B18:01'
p29
I494297
sS'HLA-A02:11'
p30
I494297
sS'HLA-A02:12'
p31
I494297
sS'HLA-A02:16'
p32
I494297
sS'HLA-A02:17'
p33
I494297
sS'HLA-B14:01'
p34
I494297
sS'HLA-A02:19'
p35
I494297
sS'HLA-A32:15'
p36
I494297
sS'HLA-B14:02'
p37
I494297
sS'HLA-A80:01'
p38
I494297
sS'HLA-B42:01'
p39
I494297
sS'HLA-A26:01'
p40
I494297
sS'HLA-B48:01'
p41
I494297
sS'HLA-A26:03'
p42
I494297
sS'HLA-A26:02'
p43
I494297
sS'HLA-B53:01'
p44
I494297
sS'HLA-B57:01'
p45
I494297
sS'HLA-B57:03'
p46
I494297
sS'HLA-A02:07'
p47
I494297
sS'HLA-B35:01'
p48
I494297
sS'HLA-A02:05'
p49
I494297
sS'HLA-B35:03'
p50
I494297
sS'HLA-A02:03'
p51
I494297
sS'HLA-A02:02'
p52
I494297
sS'HLA-A02:01'
p53
I494297
sS'HLA-B35:08'
p54
I494297
sS'HLA-A68:02'
p55
I494297
sS'HLA-A68:01'
p56
I494297
sS'HLA-B46:01'
p57
I494297
sS'HLA-A02:06'
p58
I494297
sS'HLA-A29:02'
p59
I494297
sS'HLA-B15:42'
p60
I494297
sS'HLA-A66:01'
p61
I494297
sS'HLA-B08:01'
p62
I494297
sS'HLA-B08:02'
p63
I494297
sS'HLA-B08:03'
p64
I494297
sS'HLA-C05:01'
p65
I494297
sS'HLA-A25:01'
p66
I494297
sS'HLA-A23:01'
p67
I494297
sS'HLA-A33:01'
p68
I494297
sS'HLA-B83:01'
p69
I494297
sS'HLA-E01:03'
p70
I98893
sS'HLA-C14:02'
p71
I494297
sS'HLA-B81:01'
p72
I494297
sS'HLA-B40:01'
p73
I494297
sS'HLA-B40:02'
p74
I494297
sS'HLA-B15:09'
p75
I494297
sS'HLA-A03:01'
p76
I494297
sS'HLA-B45:06'
p77
I494297
sS'HLA-B39:06'
p78
I494297
sS'HLA-B39:01'
p79
I494297
sS'HLA-B45:01'
p80
I494297
sS'HLA-B51:01'
p81
I494297
sS'HLA-B54:01'
p82
I494297
sS'HLA-B62:01'
p83
I494297
sS'HLA-BF02:2101'
p84
I98893
sS'HLA-B58:01'
p85
I494297
sS'HLA-B58:02'
p86
I494297
sS'HLA-B40:13'
p87
I494297
sS'HLA-B37:01'
p88
I494297
sS'HLA-A03:19'
p89
I494297
sS'HLA-B27:20'
p90
I494297
sS'HLA-C06:02'
p91
I494297
sS'HLA-A01:01'
p92
I494297
sS'HLA-A30:02'
p93
I494297
sS'HLA-A30:01'
p94
I494297
sS'HLA-B07:01'
p95
I494297
sS'HLA-A02:50'
p96
I494297
sS'HLA-C04:01'
p97
I494297
sS'HLA-B07:02'
p98
I494297
sS'HLA-A24:03'
p99
I494297
sS'HLA-A24:02'
p100
I494297
sS'HLA-A24:01'
p101
I494297
sS'HLA-C07:02'
p102
I494297
sS'HLA-C07:01'
p103
I494297
sS'HLA-B15:02'
p104
I494297
sS'HLA-B15:03'
p105
I494297
sS'HLA-B15:01'
p106
I494297
sS'HLA-A31:01'
p107
I494297
s.