(dp1
S'HLA-B44:01'
p2
F29.539999999999999
sS'HLA-B44:02'
p3
F4622.8199999999997
sS'HLA-B44:03'
p4
F4262.1099999999997
sS'HLA-C03:03'
p5
F4.0300000000000002
sS'HLA-A11:01'
p6
F94.510000000000005
sS'HLA-A69:01'
p7
F452.43000000000001
sS'HLA-B27:06'
p8
F65.650000000000006
sS'HLA-B27:05'
p9
F409.22000000000003
sS'HLA-B27:04'
p10
F74.849999999999994
sS'HLA-B27:03'
p11
F10094.870000000001
sS'HLA-B27:02'
p12
F57.530000000000001
sS'HLA-B27:01'
p13
F69.780000000000001
sS'HLA-B15:17'
p14
F9.8900000000000006
sS'HLA-B15:16'
p15
F1679.02
sS'HLA-B27:09'
p16
F372.62
sS'HLA-B38:01'
p17
F732.95000000000005
sS'HLA-C15:02'
p18
F224.12
sS'HLA-RT01:01'
p19
F232.87
sS'HLA-C12:03'
p20
F8.6699999999999999
sS'HLA-A32:01'
p21
F410.25999999999999
sS'HLA-A32:07'
p22
F7.6500000000000004
sS'HLA-A68:23'
p23
F3.25
sS'HLA-B73:01'
p24
F99.060000000000002
sS'HLA-C08:02'
p25
F20.16
sS'HLA-C08:01'
p26
F1740.6900000000001
sS'HLA-BF02:0401'
p27
F206.28
sS'HLA-C03:04'
p28
F89.909999999999997
sS'HLA-B18:01'
p29
F1374.3199999999999
sS'HLA-A02:11'
p30
F3.1899999999999999
sS'HLA-A02:12'
p31
F56.420000000000002
sS'HLA-A02:16'
p32
F24.809999999999999
sS'HLA-A02:17'
p33
F463.81
sS'HLA-B14:01'
p34
F770.15999999999997
sS'HLA-A02:19'
p35
F238.44999999999999
sS'HLA-A32:15'
p36
F40.710000000000001
sS'HLA-B14:02'
p37
F969.13
sS'HLA-A80:01'
p38
F4411.3999999999996
sS'HLA-B42:01'
p39
F67.290000000000006
sS'HLA-A26:01'
p40
F5000.5100000000002
sS'HLA-B48:01'
p41
F1520.28
sS'HLA-A26:03'
p42
F2150.71
sS'HLA-A26:02'
p43
F36.259999999999998
sS'HLA-B53:01'
p44
F1118.04
sS'HLA-B57:01'
p45
F5077.25
sS'HLA-B57:03'
p46
F1311.01
sS'HLA-A02:07'
p47
F4903.1099999999997
sS'HLA-B35:01'
p48
F3443.7199999999998
sS'HLA-A02:05'
p49
F118.88
sS'HLA-B35:03'
p50
F5695.3400000000001
sS'HLA-A02:03'
p51
F5643.6199999999999
sS'HLA-A02:02'
p52
F38.409999999999997
sS'HLA-A02:01'
p53
F5026.4399999999996
sS'HLA-B35:08'
p54
F90.920000000000002
sS'HLA-A68:02'
p55
F3901.9099999999999
sS'HLA-A68:01'
p56
F68.019999999999996
sS'HLA-B46:01'
p57
F8584.3299999999999
sS'HLA-A02:06'
p58
F72.709999999999994
sS'HLA-A29:02'
p59
F4197.8400000000001
sS'HLA-B15:42'
p60
F812.39999999999998
sS'HLA-A66:01'
p61
F1104.3
sS'HLA-B08:01'
p62
F296.69
sS'HLA-B08:02'
p63
F6932.4099999999999
sS'HLA-B08:03'
p64
F2591.9200000000001
sS'HLA-C05:01'
p65
F30.030000000000001
sS'HLA-A25:01'
p66
F3660.9499999999998
sS'HLA-A23:01'
p67
F683.54999999999995
sS'HLA-A33:01'
p68
F322.85000000000002
sS'HLA-B83:01'
p69
F757.88999999999999
sS'HLA-E01:03'
p70
F4333.9300000000003
sS'HLA-C14:02'
p71
F8.8399999999999999
sS'HLA-B81:01'
p72
F31.48
sS'HLA-B40:01'
p73
F523.38999999999999
sS'HLA-B40:02'
p74
F198.47999999999999
sS'HLA-B15:09'
p75
F2258
sS'HLA-A03:01'
p76
F4923.2399999999998
sS'HLA-B45:06'
p77
F3354.3400000000001
sS'HLA-B39:06'
p78
F7.3600000000000003
sS'HLA-B39:01'
p79
F261.72000000000003
sS'HLA-B45:01'
p80
F334.87
sS'HLA-B51:01'
p81
F5237.9099999999999
sS'HLA-B54:01'
p82
F4332.9200000000001
sS'HLA-B62:01'
p83
F2764.6799999999998
sS'HLA-BF02:2101'
p84
F930.86000000000001
sS'HLA-B58:01'
p85
F272.69
sS'HLA-B58:02'
p86
F421.44
sS'HLA-B40:13'
p87
F1234.9000000000001
sS'HLA-B37:01'
p88
F985.55999999999995
sS'HLA-A03:19'
p89
F1569.29
sS'HLA-B27:20'
p90
F104.59
sS'HLA-C06:02'
p91
F115.2
sS'HLA-A01:01'
p92
F5383.8800000000001
sS'HLA-A30:02'
p93
F260.81
sS'HLA-A30:01'
p94
F50.759999999999998
sS'HLA-B07:01'
p95
F21.120000000000001
sS'HLA-A02:50'
p96
F1.3200000000000001
sS'HLA-C04:01'
p97
F3861.48
sS'HLA-B07:02'
p98
F309.57999999999998
sS'HLA-A24:03'
p99
F30.149999999999999
sS'HLA-A24:02'
p100
F5134.2600000000002
sS'HLA-A24:01'
p101
F147.44
sS'HLA-C07:02'
p102
F15.960000000000001
sS'HLA-C07:01'
p103
F4976.0500000000002
sS'HLA-B15:02'
p104
F22.370000000000001
sS'HLA-B15:03'
p105
F8.6199999999999992
sS'HLA-B15:01'
p106
F58.460000000000001
sS'HLA-A31:01'
p107
F4868.1700000000001
s.