(dp1
S'HLA-A33:01'
p2
I3692
sS'HLA-B40:01'
p3
I4337
sS'tuning_results'
p4
I0
sS'HLA-B15:01'
p5
I6550
sS'HLA-DQA106:01-DQB104:02'
p6
I565
sS'HLA-DPA101:03-DPB103:01'
p7
I176
sS'HLA-DRB116:01'
p8
I55
sS'Patr-B09:01'
p9
I48
sS'HLA-B44:01'
p10
I78
sS'HLA-DRB110:01'
p11
I398
sS'HLA-B44:03'
p12
I1493
sS'HLA-DRA01:01-DRB501:01'
p13
I771
sS'HLA-DRB107:01'
p14
I4006
sS'HLA-C03:04'
p15
I337
sS'HLA-A32:01'
p16
I1136
sS'HLA-DRB115:01'
p17
I3973
sS'HLA-DRB115:02'
p18
I159
sS'HLA-DRA01:01-DRB301:01'
p19
I842
sS'Mamu-B52:01'
p20
I894
sS'HLA-B27:06'
p21
I87
sS'HLA-B27:05'
p22
I4402
sS'HLA-B27:04'
p23
I91
sS'HLA-B27:03'
p24
I912
sS'HLA-B27:02'
p25
I52
sS'HLA-B27:01'
p26
I276
sS'HLA-DRA01:01-DRB104:01'
p27
I75
sS'HLA-B15:16'
p28
I46
sS'Mamu-B17:01'
p29
I1650
sS'Mamu-A22:01'
p30
I689
sS'HLA-DRA01:01-DRB104:04'
p31
I881
sS'HLA-DRB303:01'
p32
I30
sS'HLA-DRA01:01-DRB115:01'
p33
I15
sS'Mamu-B87:01'
p34
I155
sS'HLA-DQA104:01-DQB104:02'
p35
I976
sS'HLA-DPB105:01'
p36
I113
sS'HLA-DRB302:02'
p37
I1070
sS'HLA-DRA01:01-DRB101:01'
p38
I196
sS'HLA-B38:01'
p39
I526
sS'HLA-C15:02'
p40
I181
sS'HLA-DRB109:01'
p41
I2354
sS'H-2-IEd'
p42
I429
sS'HLA-DQA102:01-DQB104:02'
p43
I768
sS'HLA-DQA101:02-DQB105:02'
p44
I176
sS'HLA-DQA101:02-DQB105:01'
p45
I835
sS'Mamu-B66:01'
p46
I101
sS'Patr-B01:01'
p47
I792
sS'HLA-RT01:01'
p48
I139
sS'H-2-IEk'
p49
I205
sS'HLA-B40:02'
p50
I1087
sS'Patr-A01:01'
p51
I455
sS'HLA-A26:01'
p52
I5233
sS'HLA-C12:03'
p53
I172
sS'H-2-IEr'
p54
I6
sS'H-2-IEp'
p55
I79
sS'HLA-DRA01:01-DRB114:54'
p56
I864
sS'HLA-A26:03'
p57
I537
sS'HLA-A32:07'
p58
I87
sS'HLA-A26:02'
p59
I643
sS'HLA-DRB116:02'
p60
I217
sS'HLA-C03:03'
p61
I164
sS'HLA-A68:23'
p62
I82
sS'Patr-A04:01'
p63
I327
sS'HLA-DPB109:01'
p64
I65
sS'HLA-B73:01'
p65
I131
sS'HLA-B18:01'
p66
I2757
sS'BoLA-613:01'
p67
I92
sS'HLA-DQB105:01'
p68
I201
sS'HLA-DQB105:02'
p69
I102
sS'HLA-DQB105:03'
p70
I102
sS'HLA-A23:01'
p71
I2586
sS'HLA-A11:01'
p72
I8601
sS'HLA-C08:02'
p73
I135
sS'Mamu-DRB104:06'
p74
I94
sS'HLA-BF02:0401'
p75
I33
sS'Eqca-101:01'
p76
I678
sS'HLA-DQA101:01-DQB105:01'
p77
I989
sS'Mamu-B39:01'
p78
I459
sS'Mamu-A02:0102'
p79
I146
sS'HLA-DQA102:01-DQB103:03'
p80
I764
sS'HLA-DQA102:01-DQB103:01'
p81
I829
sS'HLA-A02:11'
p82
I1088
sS'HLA-A02:12'
p83
I1183
sS'HLA-A02:16'
p84
I920
sS'HLA-A69:01'
p85
I3031
sS'HLA-DQA103:01-DQB104:01'
p86
I5
sS'HLA-DRB401:03'
p87
I22
sS'HLA-A32:15'
p88
I74
sS'HLA-DRB401:01'
p89
I2385
sS'HLA-DRB301:01'
p90
I2237
sS'HLA-DQA105:01-DQB104:02'
p91
I749
sS'HLA-DPA102:02-DPB105:01'
p92
I7
sS'HLA-A80:01'
p93
I1167
sS'SLA-104:01'
p94
I70
sS'BoLA-A11:01'
p95
I40
sS'HLA-DRB113:04'
p96
I12
sS'HLA-DQA103:02-DQB104:01'
p97
I154
sS'HLA-DQB102:01'
p98
I272
sS'HLA-DRB113:03'
p99
I22
sS'HLA-DQB102:02'
p100
I102
sS'HLA-DPA102:01-DPB105:01'
p101
I971
sS'HLA-DPA101:03-DPB104:01'
p102
I981
sS'HLA-DPA101:03-DPB104:02'
p103
I38
sS'HLA-DRB101:01'
p104
I10325
sS'HLA-B48:01'
p105
I883
sS'HLA-DRB101:03'
p106
I64
sS'HLA-DRB101:02'
p107
I147
sS'HLA-DQA105:01-DQB103:02'
p108
I862
sS'HLA-DQA105:01-DQB103:03'
p109
I564
sS'HLA-DQA105:01-DQB103:01'
p110
I1009
sS'HLA-DQA103:03-DQB104:02'
p111
I567
sS'Mamu-A07:0103'
p112
I102
sS'HLA-B53:01'
p113
I1797
sS'HLA-B27:20'
p114
I91
sS'HLA-DRB103:05'
p115
I18
sS'HLA-DRB103:03'
p116
I28
sS'HLA-DRB103:02'
p117
I100
sS'HLA-DRB103:01'
p118
I4136
sS'HLA-B57:01'
p119
I2914
sS'HLA-DRB111:04'
p120
I123
sS'HLA-B35:01'
p121
I4269
sS'HLA-A02:05'
p122
I130
sS'HLA-B35:03'
p123
I290
sS'HLA-A02:03'
p124
I8513
sS'HLA-DRB111:01'
p125
I4129
sS'HLA-DRB111:02'
p126
I70
sS'HLA-DRB111:03'
p127
I67
sS'HLA-DQB103:19'
p128
I6
sS'HLA-B54:01'
p129
I1236
sS'HLA-B57:03'
p130
I38
sS'HLA-DPB120:01'
p131
I255
sS'HLA-A02:07'
p132
I125
sS'HLA-A68:01'
p133
I4385
sS'HLA-DPB111:01'
p134
I2
sS'Mamu-A07:01'
p135
I681
sS'HLA-B45:01'
p136
I1090
sS'HLA-A02:06'
p137
I7864
sS'HLA-DPB114:01'
p138
I262
sS'Mamu-B83:01'
p139
I432
sS'HLA-A29:02'
p140
I2738
sS'HLA-DRB104:11'
p141
I4
sS'H-2-Kk'
p142
I634
sS'HLA-C08:01'
p143
I44
sS'Mamu-B10:01'
p144
I159
sS'HLA-B15:03'
p145
I705
sS'H-2-Kb'
p146
I6159
sS'BoLA-DRB311:01'
p147
I5
sS'HLA-A02:02'
p148
I6378
sS'HLA-DRA01:01-DRB401:03'
p149
I827
sS'Mamu-A02:01'
p150
I1358
sS'HLA-A02:01'
p151
I26602
sS'HLA-B83:01'
p152
I338
sS'Mamu-B01:01'
p153
I889
sS'HLA-B08:01'
p154
I4463
sS'HLA-B08:02'
p155
I1019
sS'HLA-B08:03'
p156
I470
sS'HLA-DQB103:02'
p157
I535
sS'HLA-B35:08'
p158
I191
sS'HLA-C07:01'
p159
I461
sS'HLA-DQB103:01'
p160
I303
sS'HLA-B27:09'
p161
I47
sS'HLA-DPB101:01'
p162
I106
sS'HLA-A25:01'
p163
I960
sS'HLA-DQB106:02'
p164
I385
sS'BoLA-DRB312:01'
p165
I6
sS'HLA-B15:02'
p166
I210
sS'HLA-DPB104:01'
p167
I344
sS'HLA-DPB104:02'
p168
I306
sS'HLA-B07:02'
p169
I6938
sS'H-2-Dd'
p170
I514
sS'Patr-A03:01'
p171
I379
sS'HLA-A02:19'
p172
I1245
sS'HLA-A66:01'
p173
I102
sS'HLA-DRA01:01-DRB303:01'
p174
I861
sS'HLA-DRB104:02'
p175
I401
sS'HLA-DRB104:03'
p176
I206
sS'HLA-DQA103:01-DQB102:01'
p177
I10
sS'HLA-DRB104:01'
p178
I5673
sS'HLA-DRB104:06'
p179
I94
sS'HLA-DRB104:07'
p180
I10
sS'HLA-DRB104:04'
p181
I1745
sS'HLA-DRB104:05'
p182
I2420
sS'HLA-DPA103:01-DPB104:02'
p183
I974
sS'HLA-E01:03'
p184
I67
sS'HLA-DQA101:03-DQB106:03'
p185
I378
sS'HLA-A24:03'
p186
I1431
sS'HLA-DQA101:03-DQB106:01'
p187
I4
sS'HLA-B15:17'
p188
I1452
sS'HLA-A68:02'
p189
I7752
sS'Mamu-DRB01'
p190
I93
sS'H-2-IAb'
p191
I1163
sS'Patr-A06:02'
p192
I41
sS'Mamu-B03:01'
p193
I1147
sS'H-2-IAd'
p194
I710
sS'Patr-B24:01'
p195
I324
sS'HLA-DRB114:02'
p196
I40
sS'HLA-DRB114:01'
p197
I48
sS'HLA-B46:01'
p198
I1833
sS'HLA-B81:01'
p199
I30
sS'H-2-IAs'
p200
I254
sS'H-2-IAr'
p201
I7
sS'H-2-IAq'
p202
I59
sS'H-2-IAp'
p203
I20
sS'Mamu-A26:01'
p204
I206
sS'H-2-IAu'
p205
I110
sS'HLA-DQA102:01-DQB102:01'
p206
I37
sS'HLA-DQA102:01-DQB102:02'
p207
I214
sS'HLA-DRA01:01-DRB109:01'
p208
I866
sS'Mamu-A01:11'
p209
I960
sS'HLA-BF02:2101'
p210
I37
sS'HLA-B62:01'
p211
I37
sS'HLA-DQA101:04-DQB105:03'
p212
I169
sS'HLA-DRA01:01-DRB103:01'
p213
I974
sS'HLA-A03:01'
p214
I9651
sS'HLA-DQA101:02-DQB106:02'
p215
I1121
sS'HLA-B45:06'
p216
I361
sS'HLA-B39:06'
p217
I33
sS'HLA-B39:01'
p218
I1692
sS'HLA-DQA101:02-DQB106:04'
p219
I111
sS'HLA-B51:01'
p220
I2953
sS'Patr-B13:01'
p221
I255
sS'HLA-C14:02'
p222
I316
sS'H-2-IAk'
p223
I328
sS'HLA-DRA01:01-DRB113:01'
p224
I841
sS'BoLA-DRB302:01'
p225
I5
sS'H-2-Db'
p226
I5914
sS'HLA-A02:17'
p227
I346
sS'HLA-DRB501:01'
p228
I3011
sS'HLA-B42:01'
p229
I218
sS'HLA-DRB501:02'
p230
I63
sS'HLA-B14:01'
p231
I42
sS'HLA-DRB113:02'
p232
I2643
sS'HLA-DRB108:02'
p233
I2487
sS'HLA-DRB108:03'
p234
I8
sS'HLA-RT11:01'
p235
I2
sS'HLA-DRB108:01'
p236
I148
sS'HLA-B58:01'
p237
I4422
sS'HLA-B58:02'
p238
I53
sS'HLA-DPA102:01-DPB101:01'
p239
I983
sS'H-2-IEb'
p240
I24
sS'HLA-B15:42'
p241
I363
sS'HLA-B14:02'
p242
I223
sS'HLA-B40:13'
p243
I58
sS'Mamu-A01:01'
p244
I2838
sS'Mamu-A01:02'
p245
I625
sS'HLA-B37:01'
p246
I114
sS'Patr-A09:01'
p247
I656
sS'BoLA-212:01'
p248
I55
sS'HLA-A03:19'
p249
I30
sS'HLA-DQB104:02'
p250
I108
sS'HLA-DRB115:03'
p251
I57
sS'Mamu-B17:04'
p252
I1453
sS'HLA-C06:02'
p253
I413
sS'H-2-Ld'
p254
I586
sS'HLA-DPA101:03-DPB102:01'
p255
I838
sS'HLA-DPB102:01'
p256
I266
sS'HLA-B44:02'
p257
I2232
sS'HLA-DQA105:05-DQB103:01'
p258
I10
sS'HLA-DRA01:01-DRB107:01'
p259
I873
sS'HLA-A01:01'
p260
I6209
sS'HLA-DQA105:01-DQB102:01'
p261
I1417
sS'HLA-DQA103:01-DQB103:01'
p262
I139
sS'HLA-DQA103:01-DQB103:02'
p263
I1272
sS'Patr-A07:01'
p264
I612
sS'HLA-A30:01'
p265
I3237
sS'Mamu-A11:01'
p266
I1261
sS'HLA-A31:01'
p267
I6280
sS'HLA-B07:01'
p268
I297
sS'HLA-A02:50'
p269
I135
sS'HLA-C04:01'
p270
I522
sS'Mamu-B08:01'
p271
I1127
sS'HLA-A30:02'
p272
I2514
sS'HLA-DRA01:01-DRB108:01'
p273
I900
sS'HLA-DPB103:01'
p274
I104
sS'HLA-A24:02'
p275
I5854
sS'HLA-A24:01'
p276
I98
sS'HLA-C07:02'
p277
I169
sS'HLA-DRA01:01-DRB302:02'
p278
I775
sS'HLA-B15:09'
p279
I845
sS'HLA-DRA01:01-DRB111:01'
p280
I874
sS'HLA-DQA103:02-DQB103:01'
p281
I24
sS'HLA-C05:01'
p282
I220
sS'HLA-DRB113:01'
p283
I607
sS'H-2-Kd'
p284
I1746
sS'HLA-DRB112:01'
p285
I1275
sS'HLA-DRB112:02'
p286
I60
s.