(dp1
S'HLA-DRA01:01-DRB401:03'
p2
I827
sS'Mamu-A07:01'
p3
I0
sS'HLA-DQA106:01-DQB104:02'
p4
I565
sS'HLA-B44:05'
p5
I0
sS'HLA-DRB116:01'
p6
I55
sS'Mamu-A22:01'
p7
I0
sS'HLA-B44:01'
p8
I0
sS'HLA-B12:01'
p9
I0
sS'HLA-B27:20'
p10
I0
sS'BoLA-641:01'
p11
I0
sS'HLA-C03:03'
p12
I0
sS'HLA-DRB107:01'
p13
I4006
sS'HLA-A11:02'
p14
I0
sS'HLA-A11:01'
p15
I0
sS'HLA-DRA01:01-DRB114:54'
p16
I864
sS'HLA-A69:01'
p17
I0
sS'HLA-DRB115:02'
p18
I159
sS'HLA-DRA01:01-DRB301:01'
p19
I842
sS'Mamu-B52:01'
p20
I0
sS'SLA-104:01'
p21
I0
sS'HLA-B27:06'
p22
I0
sS'HLA-B27:05'
p23
I0
sS'HLA-B27:04'
p24
I0
sS'HLA-B27:03'
p25
I0
sS'HLA-B27:02'
p26
I0
sS'HLA-B27:01'
p27
I0
sS'HLA-B15:17'
p28
I0
sS'HLA-B15:16'
p29
I0
sS'HLA-B15:10'
p30
I0
sS'HLA-B27:09'
p31
I0
sS'HLA-DRA01:01-DRB104:04'
p32
I881
sS'HLA-DRB303:01'
p33
I30
sS'HLA-DRA01:01-DRB115:01'
p34
I15
sS'Mamu-B87:01'
p35
I0
sS'HLA-DQA104:01-DQB104:02'
p36
I976
sS'HLA-DPA101:03-DPB103:01'
p37
I176
sS'Mamu-A01:02'
p38
I0
sS'HLA-DPA101:03-DPB104:01'
p39
I981
sS'HLA-DPB105:01'
p40
I113
sS'HLA-DRB302:02'
p41
I1070
sS'HLA-DRA01:01-DRB101:01'
p42
I196
sS'HLA-B38:01'
p43
I0
sS'HLA-C15:02'
p44
I0
sS'HLA-DRB103:01'
p45
I4136
sS'H-2-IEd'
p46
I429
sS'HLA-DQA102:01-DQB104:02'
p47
I768
sS'H-2-IEb'
p48
I24
sS'HLA-DQA101:02-DQB105:01'
p49
I835
sS'HLA-DQA102:01-DQB102:01'
p50
I37
sS'HLA-DRB104:11'
p51
I4
sS'Patr-B01:01'
p52
I0
sS'HLA-DPA101:03-DPB104:02'
p53
I38
sS'H-2-IEk'
p54
I205
sS'HLA-DQA102:01-DQB102:02'
p55
I214
sS'Patr-A01:01'
p56
I0
sS'HLA-DRB101:01'
p57
I10325
sS'HLA-C12:03'
p58
I0
sS'H-2-IEr'
p59
I6
sS'H-2-IEp'
p60
I79
sS'HLA-A32:01'
p61
I0
sS'HLA-DRB110:01'
p62
I398
sS'HLA-B44:03'
p63
I0
sS'HLA-DRB101:03'
p64
I64
sS'Patr-B17:01'
p65
I0
sS'HLA-A32:07'
p66
I0
sS'HLA-BF02:1201'
p67
I0
sS'HLA-DRA01:01-DRB501:01'
p68
I771
sS'HLA-DRB111:04'
p69
I123
sS'HLA-A68:23'
p70
I0
sS'Patr-A04:01'
p71
I0
sS'HLA-B58:02'
p72
I0
sS'HLA-BF01:0201'
p73
I0
sS'HLA-DPB109:01'
p74
I65
sS'HLA-B73:01'
p75
I0
sS'Patr-B24:01'
p76
I0
sS'BoLA-613:01'
p77
I0
sS'HLA-DQB105:01'
p78
I201
sS'HLA-DQB105:02'
p79
I102
sS'HLA-DQB105:03'
p80
I102
sS'SLA-204:01'
p81
I0
sS'BoLA-208:01'
p82
I0
sS'HLA-C08:02'
p83
I0
sS'HLA-C08:01'
p84
I0
sS'HLA-BF02:0401'
p85
I0
sS'Eqca-101:01'
p86
I0
sS'HLA-C03:04'
p87
I0
sS'Mamu-B39:01'
p88
I0
sS'HLA-DRB501:01'
p89
I3011
sS'HLA-DPB104:02'
p90
I306
sS'HLA-B18:01'
p91
I0
sS'HLA-DQA102:01-DQB103:01'
p92
I829
sS'HLA-A02:11'
p93
I0
sS'HLA-A02:12'
p94
I0
sS'HLA-A02:14'
p95
I0
sS'HLA-A02:16'
p96
I0
sS'HLA-A02:17'
p97
I0
sS'HLA-B14:01'
p98
I0
sS'HLA-A02:19'
p99
I0
sS'HLA-A32:15'
p100
I0
sS'HLA-B14:02'
p101
I0
sS'HLA-DRA01:01-DRB104:01'
p102
I75
sS'HLA-DRB301:01'
p103
I2237
sS'HLA-A74:01'
p104
I0
sS'Mamu-B08:01'
p105
I0
sS'HLA-DPA102:02-DPB105:01'
p106
I7
sS'HLA-A80:01'
p107
I0
sS'Patr-B09:01'
p108
I0
sS'Gogo-B01:01'
p109
I0
sS'BoLA-A11:01'
p110
I0
sS'HLA-DRB113:04'
p111
I12
sS'HLA-DQA103:02-DQB104:01'
p112
I154
sS'HLA-DQB102:01'
p113
I272
sS'HLA-DRB113:03'
p114
I22
sS'HLA-DQB102:02'
p115
I102
sS'HLA-DPA102:01-DPB105:01'
p116
I971
sS'Mamu-B65:02'
p117
I0
sS'HLA-B42:02'
p118
I0
sS'HLA-B42:01'
p119
I0
sS'HLA-A26:01'
p120
I0
sS'HLA-B48:01'
p121
I0
sS'HLA-A26:03'
p122
I0
sS'HLA-A26:02'
p123
I0
sS'HLA-DQA105:01-DQB103:02'
p124
I862
sS'HLA-DQA105:01-DQB103:03'
p125
I564
sS'HLA-DQA105:01-DQB103:01'
p126
I1009
sS'HLA-DQA101:02-DQB106:04'
p127
I111
sS'Mamu-A07:0103'
p128
I0
sS'HLA-B53:01'
p129
I0
sS'HLA-DRB103:05'
p130
I18
sS'SLA-302:02'
p131
I0
sS'HLA-DRB103:03'
p132
I28
sS'HLA-B57:01'
p133
I0
sS'HLA-B57:02'
p134
I0
sS'HLA-B57:03'
p135
I0
sS'HLA-A02:07'
p136
I0
sS'HLA-A02:06'
p137
I0
sS'HLA-A02:05'
p138
I0
sS'HLA-A02:04'
p139
I0
sS'HLA-A02:03'
p140
I0
sS'HLA-A02:02'
p141
I0
sS'HLA-A02:01'
p142
I0
sS'HLA-DRB111:03'
p143
I67
sS'HLA-B35:08'
p144
I0
sS'HLA-DQB104:02'
p145
I108
sS'HLA-B54:01'
p146
I0
sS'HLA-DQA105:01-DQB104:02'
p147
I749
sS'HLA-A02:09'
p148
I0
sS'HLA-A02:08'
p149
I0
sS'HLA-A68:02'
p150
I0
sS'HLA-A68:01'
p151
I0
sS'HLA-B46:01'
p152
I0
sS'HLA-DRB501:02'
p153
I63
sS'HLA-B35:01'
p154
I0
sS'HLA-DPB114:01'
p155
I262
sS'HLA-B52:01'
p156
I0
sS'HLA-A29:01'
p157
I0
sS'HLA-A29:02'
p158
I0
sS'HLA-B15:42'
p159
I0
sS'H-2-Kk'
p160
I0
sS'HLA-B35:03'
p161
I0
sS'Mamu-DRB104:06'
p162
I94
sS'Mamu-B10:01'
p163
I0
sS'H-2-Kb'
p164
I0
sS'H-2-Kd'
p165
I0
sS'HLA-DRB111:01'
p166
I4129
sS'Eqca-N06:02'
p167
I0
sS'Mamu-B17:01'
p168
I0
sS'Mamu-B04:01'
p169
I0
sS'Mamu-A02:01'
p170
I0
sS'HLA-DRB111:02'
p171
I70
sS'HLA-B83:01'
p172
I0
sS'Mamu-B01:01'
p173
I0
sS'HLA-B08:01'
p174
I0
sS'HLA-B08:02'
p175
I0
sS'HLA-B08:03'
p176
I0
sS'HLA-DQB103:02'
p177
I535
sS'HLA-C05:01'
p178
I0
sS'HLA-DQB103:01'
p179
I303
sS'Mamu-A02:0102'
p180
I0
sS'HLA-DPB101:01'
p181
I106
sS'HLA-DRB401:03'
p182
I22
sS'HLA-A25:01'
p183
I0
sS'HLA-A23:01'
p184
I0
sS'BoLA-DRB312:01'
p185
I6
sS'HLA-DQA101:01-DQB105:01'
p186
I989
sS'HLA-A33:03'
p187
I0
sS'HLA-DPB104:01'
p188
I344
sS'HLA-A33:01'
p189
I0
sS'HLA-DRB101:02'
p190
I147
sS'Patr-A03:01'
p191
I0
sS'HLA-DRA01:01-DRB103:01'
p192
I974
sS'HLA-A66:01'
p193
I0
sS'HLA-DRA01:01-DRB303:01'
p194
I861
sS'HLA-DRB104:02'
p195
I401
sS'HLA-DRB104:03'
p196
I206
sS'HLA-DQA103:01-DQB102:01'
p197
I10
sS'HLA-DRB104:01'
p198
I5673
sS'HLA-DRB104:06'
p199
I94
sS'HLA-DRB104:07'
p200
I10
sS'HLA-DRB104:04'
p201
I1745
sS'HLA-DRB104:05'
p202
I2420
sS'Patr-A06:02'
p203
I0
sS'HLA-DPA103:01-DPB104:02'
p204
I974
sS'HLA-E01:03'
p205
I0
sS'H-2-IAk'
p206
I328
sS'HLA-DPB103:01'
p207
I104
sS'HLA-DQA101:03-DQB106:01'
p208
I4
sS'HLA-CW04:01'
p209
I0
sS'Mamu-DRB01'
p210
I93
sS'H-2-IAb'
p211
I1163
sS'HLA-DQA103:01-DQB104:01'
p212
I5
sS'Mamu-B03:01'
p213
I0
sS'HLA-DQA102:01-DQB103:03'
p214
I764
sS'H-2-IAd'
p215
I710
sS'HLA-C14:02'
p216
I0
sS'HLA-DRB114:02'
p217
I40
sS'HLA-DRB114:01'
p218
I48
sS'HLA-DPB111:01'
p219
I2
sS'HLA-DRB401:01'
p220
I2385
sS'HLA-B81:01'
p221
I0
sS'H-2-IAs'
p222
I254
sS'H-2-IAr'
p223
I7
sS'H-2-IAq'
p224
I59
sS'H-2-IAp'
p225
I20
sS'Mamu-A26:01'
p226
I0
sS'H-2-IAu'
p227
I110
sS'HLA-B40:01'
p228
I0
sS'HLA-B40:02'
p229
I0
sS'ELA-A01:01'
p230
I0
sS'HLA-DRA01:01-DRB109:01'
p231
I866
sS'Mamu-A01:11'
p232
I0
sS'HLA-DRB109:01'
p233
I2354
sS'HLA-DQA101:04-DQB105:03'
p234
I169
sS'HLA-C07:01'
p235
I0
sS'HLA-A03:01'
p236
I0
sS'HLA-A03:02'
p237
I0
sS'Patr-A06:01'
p238
I0
sS'HLA-DQA101:02-DQB106:02'
p239
I1121
sS'HLA-B45:06'
p240
I0
sS'HLA-B39:06'
p241
I0
sS'HLA-DRB115:01'
p242
I3973
sS'HLA-B39:01'
p243
I0
sS'HLA-B45:01'
p244
I0
sS'HLA-B51:01'
p245
I0
sS'HLA-DRB103:02'
p246
I100
sS'Patr-A05:01'
p247
I0
sS'Mamu-B83:01'
p248
I0
sS'HLA-DQA101:03-DQB106:03'
p249
I378
sS'HLA-DRA01:01-DRB113:01'
p250
I841
sS'H-2-Dk'
p251
I0
sS'HLA-RT01:01'
p252
I0
sS'BoLA-DRB302:01'
p253
I5
sS'H-2-Db'
p254
I0
sS'H-2-Dd'
p255
I0
sS'HLA-B62:01'
p256
I0
sS'HLA-DRB116:02'
p257
I217
sS'Patr-B13:01'
p258
I0
sS'HLA-BF02:2101'
p259
I0
sS'HLA-DRB113:02'
p260
I2643
sS'HLA-DRB108:02'
p261
I2487
sS'HLA-DRB108:03'
p262
I8
sS'HLA-RT11:01'
p263
I2
sS'HLA-DRB108:01'
p264
I148
sS'HLA-B58:01'
p265
I0
sS'HLA-B15:01'
p266
I0
sS'BoLA-212:01'
p267
I0
sS'__init__'
p268
I0
sS'HLA-DQA101:02-DQB105:02'
p269
I176
sS'HLA-B55:02'
p270
I0
sS'H-2-Lq'
p271
I0
sS'HLA-B55:01'
p272
I0
sS'HLA-A02:50'
p273
I0
sS'Mamu-A01:01'
p274
I0
sS'HLA-DQA103:03-DQB104:02'
p275
I567
sS'HLA-B37:01'
p276
I0
sS'Patr-A09:01'
p277
I0
sS'HLA-DPA102:01-DPB101:01'
p278
I983
sS'HLA-A03:19'
p279
I0
sS'Mamu-B66:01'
p280
I0
sS'DLA-88508:01'
p281
I0
sS'HLA-DRB115:03'
p282
I57
sS'HLA-SLA01'
p283
I0
sS'Mamu-B17:04'
p284
I0
sS'HLA-C06:02'
p285
I0
sS'H-2-Ld'
p286
I0
sS'HLA-DPA101:03-DPB102:01'
p287
I838
sS'HLA-DPB102:01'
p288
I266
sS'HLA-B44:02'
p289
I0
sS'HLA-DQA105:05-DQB103:01'
p290
I10
sS'HLA-DRA01:01-DRB107:01'
p291
I873
sS'HLA-DQB106:02'
p292
I385
sS'HLA-DQB103:19'
p293
I6
sS'HLA-A01:01'
p294
I0
sS'HLA-DQA105:01-DQB102:01'
p295
I1417
sS'HLA-DQA103:01-DQB103:01'
p296
I139
sS'HLA-DQA103:01-DQB103:02'
p297
I1272
sS'HLA-B61:01'
p298
I0
sS'HLA-A30:02'
p299
I0
sS'Patr-A07:01'
p300
I0
sS'HLA-A30:01'
p301
I0
sS'Mamu-A11:01'
p302
I0
sS'HLA-DRB112:01'
p303
I1275
sS'HLA-BF02:0201'
p304
I0
sS'HLA-B07:01'
p305
I0
sS'HLA-B40:13'
p306
I0
sS'HLA-C04:01'
p307
I0
sS'HLA-B07:02'
p308
I0
sS'HLA-DRA01:01-DRB108:01'
p309
I900
sS'HLA-A24:03'
p310
I0
sS'HLA-A24:02'
p311
I0
sS'HLA-A24:01'
p312
I0
sS'HLA-C07:02'
p313
I0
sS'HLA-DRA01:01-DRB302:02'
p314
I775
sS'HLA-B15:09'
p315
I0
sS'HLA-DRA01:01-DRB111:01'
p316
I874
sS'HLA-DPB120:01'
p317
I255
sS'HLA-DQA103:02-DQB103:01'
p318
I24
sS'HLA-B15:02'
p319
I0
sS'HLA-B15:03'
p320
I0
sS'BoLA-DRB311:01'
p321
I5
sS'HLA-A31:01'
p322
I0
sS'HLA-DRB112:02'
p323
I60
sS'HLA-DRB113:01'
p324
I607
s.