(dp1
S'HLA-DRB50102'
p2
I63
sS'HLA-DPB12001'
p3
I255
sS'HLA-DQA10201-DQB10202'
p4
I214
sS'HLA-DRB11401'
p5
I48
sS'HLA-DRB11402'
p6
I40
sS'HLA-DQA10201-DQB10201'
p7
I37
sS'HLA-DRB30301'
p8
I30
sS'HLA-DQB10302'
p9
I535
sS'HLA-DQB10301'
p10
I303
sS'HLA-DPB10101'
p11
I106
sS'HLA-DQA10301-DQB10401'
p12
I5
sS'HLA-DRA0101-DRB30101'
p13
I842
sS'H-2-IAu'
p14
I110
sS'HLA-DPA10103-DPB10401'
p15
I981
sS'HLA-DPB10901'
p16
I65
sS'HLA-DPA10103-DPB10402'
p17
I38
sS'HLA-DRA0101-DRB10301'
p18
I974
sS'H-2-IEd'
p19
I429
sS'H-2-IEb'
p20
I24
sS'HLA-DPA10103-DPB10301'
p21
I176
sS'H-2-IEk'
p22
I205
sS'HLA-DQA10301-DQB10301'
p23
I139
sS'HLA-DQA10301-DQB10302'
p24
I1272
sS'H-2-IEr'
p25
I6
sS'H-2-IEp'
p26
I79
sS'HLA-DRA0101-DRB10101'
p27
I196
sS'HLA-DRA0101-DRB30202'
p28
I775
sS'HLA-DQB10602'
p29
I385
sS'HLA-DQA10501-DQB10201'
p30
I1417
sS'HLA-DRA0101-DRB40103'
p31
I827
sS'HLA-DQA10401-DQB10402'
p32
I976
sS'HLA-DRB10901'
p33
I2354
sS'HLA-DPA10201-DPB10101'
p34
I983
sS'HLA-DRA0101-DRB11454'
p35
I864
sS'HLA-DPB10501'
p36
I113
sS'HLA-DRA0101-DRB11501'
p37
I15
sS'BoLA-DRB31101'
p38
I5
sS'HLA-DPB10201'
p39
I266
sS'HLA-DRB50101'
p40
I3011
sS'BoLA-DRB30201'
p41
I5
sS'HLA-DQA10201-DQB10301'
p42
I829
sS'HLA-DRB10305'
p43
I18
sS'HLA-DRB10301'
p44
I4136
sS'HLA-DRB10302'
p45
I100
sS'HLA-DRB10303'
p46
I28
sS'HLA-DRB11304'
p47
I12
sS'HLA-DQA10104-DQB10503'
p48
I169
sS'HLA-DRB11302'
p49
I2643
sS'HLA-DRB11301'
p50
I607
sS'HLA-DQB10202'
p51
I102
sS'HLA-DQB10201'
p52
I272
sS'HLA-DPB11101'
p53
I2
sS'HLA-DPA10103-DPB10201'
p54
I838
sS'HLA-DQA10301-DQB10201'
p55
I10
sS'BoLA-DRB31201'
p56
I6
sS'HLA-RT1101'
p57
I2
sS'HLA-DQA10102-DQB10501'
p58
I835
sS'HLA-DQA10102-DQB10502'
p59
I176
sS'HLA-DRB11601'
p60
I55
sS'HLA-DQA10601-DQB10402'
p61
I565
sS'HLA-DRB30202'
p62
I1070
sS'HLA-DRA0101-DRB10801'
p63
I900
sS'HLA-DRB10411'
p64
I4
sS'HLA-DRB11602'
p65
I217
sS'HLA-DPA10202-DPB10501'
p66
I7
sS'HLA-DPB10301'
p67
I104
sS'Mamu-DRB10406'
p68
I94
sS'HLA-DRB30101'
p69
I2237
sS'HLA-DQA10201-DQB10303'
p70
I764
sS'HLA-DPA10201-DPB10501'
p71
I971
sS'HLA-DRB10403'
p72
I206
sS'HLA-DRB10402'
p73
I401
sS'HLA-DRB10401'
p74
I5673
sS'HLA-DRB10407'
p75
I10
sS'HLA-DRB10406'
p76
I94
sS'HLA-DRB10405'
p77
I2420
sS'HLA-DRA0101-DRB30301'
p78
I861
sS'H-2-IAk'
p79
I328
sS'HLA-DRB11502'
p80
I159
sS'HLA-DRA0101-DRB11101'
p81
I874
sS'HLA-DRB11201'
p82
I1275
sS'Mamu-DRB01'
p83
I93
sS'H-2-IAb'
p84
I1163
sS'H-2-IAd'
p85
I710
sS'H-2-IAs'
p86
I254
sS'H-2-IAr'
p87
I7
sS'H-2-IAq'
p88
I59
sS'H-2-IAp'
p89
I20
sS'HLA-DQA10103-DQB10601'
p90
I4
sS'HLA-DQA10103-DQB10603'
p91
I378
sS'HLA-DRB40103'
p92
I22
sS'HLA-DRB40101'
p93
I2385
sS'HLA-DRA0101-DRB10901'
p94
I866
sS'HLA-DQB10501'
p95
I201
sS'HLA-DQB10503'
p96
I102
sS'HLA-DQB10502'
p97
I102
sS'HLA-DQA10501-DQB10402'
p98
I749
sS'HLA-DQA10101-DQB10501'
p99
I989
sS'HLA-DPB11401'
p100
I262
sS'HLA-DRA0101-DRB10701'
p101
I873
sS'HLA-DQA10102-DQB10604'
p102
I111
sS'HLA-DRB10404'
p103
I1745
sS'HLA-DQA10102-DQB10602'
p104
I1121
sS'HLA-DRB10102'
p105
I147
sS'HLA-DRB10103'
p106
I64
sS'HLA-DRB10101'
p107
I10325
sS'HLA-DRB11501'
p108
I3973
sS'HLA-DRB11503'
p109
I57
sS'HLA-DRA0101-DRB50101'
p110
I771
sS'HLA-DQA10505-DQB10301'
p111
I10
sS'HLA-DRB11202'
p112
I60
sS'HLA-DRB11303'
p113
I22
sS'HLA-DQA10302-DQB10301'
p114
I24
sS'HLA-DRA0101-DRB11301'
p115
I841
sS'HLA-DQA10302-DQB10401'
p116
I154
sS'HLA-DQA10201-DQB10402'
p117
I768
sS'HLA-DRB11104'
p118
I123
sS'HLA-DRB11101'
p119
I4129
sS'HLA-DRB11103'
p120
I67
sS'HLA-DRB11102'
p121
I70
sS'HLA-DQB10319'
p122
I6
sS'HLA-DRA0101-DRB10401'
p123
I75
sS'HLA-DRB10701'
p124
I4006
sS'HLA-DRA0101-DRB10404'
p125
I881
sS'HLA-DQA10303-DQB10402'
p126
I567
sS'HLA-DRB10803'
p127
I8
sS'HLA-DRB10802'
p128
I2487
sS'HLA-DRB10801'
p129
I148
sS'HLA-DPA10301-DPB10402'
p130
I974
sS'HLA-DQA10501-DQB10302'
p131
I862
sS'HLA-DQA10501-DQB10303'
p132
I564
sS'HLA-DQA10501-DQB10301'
p133
I1009
sS'HLA-DPB10401'
p134
I344
sS'HLA-DPB10402'
p135
I306
sS'HLA-DQB10402'
p136
I108
sS'HLA-DRB11001'
p137
I398
s.