(dp1
S'HLA-DQA106:01-DQB104:02'
p2
F98.230000000000004
sS'HLA-DPA101:03-DPB103:01'
p3
F60.950000000000003
sS'HLA-DRB110:01'
p4
F6.6100000000000003
sS'HLA-DRA01:01-DRB501:01'
p5
F2.6600000000000001
sS'HLA-DRB107:01'
p6
F13.890000000000001
sS'HLA-DRB115:01'
p7
F19.550000000000001
sS'HLA-DRB115:02'
p8
F29.379999999999999
sS'HLA-DRA01:01-DRB301:01'
p9
F43.729999999999997
sS'HLA-DRA01:01-DRB104:01'
p10
F205.69999999999999
sS'HLA-DRA01:01-DRB104:04'
p11
F12.91
sS'HLA-DRB303:01'
p12
F4.71
sS'HLA-DRA01:01-DRB115:01'
p13
F72.730000000000004
sS'HLA-DQA104:01-DQB104:02'
p14
F209.63
sS'HLA-DPB105:01'
p15
F45.280000000000001
sS'HLA-DRB302:02'
p16
F91.780000000000001
sS'HLA-DRA01:01-DRB101:01'
p17
F15.59
sS'HLA-DRB109:01'
p18
F32.210000000000001
sS'HLA-DQA102:01-DQB104:02'
p19
F45.57
sS'HLA-DQA101:02-DQB105:02'
p20
F508.29000000000002
sS'HLA-DQA101:02-DQB105:01'
p21
F13.85
sS'HLA-DRA01:01-DRB114:54'
p22
F9.5700000000000003
sS'HLA-DPB109:01'
p23
F37.109999999999999
sS'HLA-DQB105:01'
p24
F539.33000000000004
sS'HLA-DQB105:02'
p25
F933.27999999999997
sS'HLA-DQB105:03'
p26
F749.78999999999996
sS'HLA-DQA101:01-DQB105:01'
p27
F615.26999999999998
sS'HLA-DQA102:01-DQB103:03'
p28
F45.539999999999999
sS'HLA-DQA102:01-DQB103:01'
p29
F12.42
sS'HLA-DQA103:01-DQB104:01'
p30
F79.099999999999994
sS'HLA-DRB401:03'
p31
F7.8799999999999999
sS'HLA-DRB401:01'
p32
F37.509999999999998
sS'HLA-DRB301:01'
p33
F174.15000000000001
sS'HLA-DQA105:01-DQB104:02'
p34
F24.989999999999998
sS'HLA-DPA102:02-DPB105:01'
p35
F285.47000000000003
sS'HLA-DRB113:04'
p36
F70.439999999999998
sS'HLA-DQA103:02-DQB104:01'
p37
F25.800000000000001
sS'HLA-DQB102:01'
p38
F290.18000000000001
sS'HLA-DRB113:03'
p39
F70.890000000000001
sS'HLA-DQB102:02'
p40
F1479.1199999999999
sS'HLA-DPA102:01-DPB105:01'
p41
F146.50999999999999
sS'HLA-DPA101:03-DPB104:01'
p42
F72.269999999999996
sS'HLA-DPA101:03-DPB104:02'
p43
F225.11000000000001
sS'HLA-DRB101:01'
p44
F6.7000000000000002
sS'HLA-DRB101:03'
p45
F164.11000000000001
sS'HLA-DRB101:02'
p46
F19.350000000000001
sS'HLA-DQA105:01-DQB103:02'
p47
F79.519999999999996
sS'HLA-DQA105:01-DQB103:03'
p48
F78.980000000000004
sS'HLA-DQA105:01-DQB103:01'
p49
F16.09
sS'HLA-DQA103:03-DQB104:02'
p50
F128.59
sS'HLA-DRB103:05'
p51
F83.540000000000006
sS'HLA-DRB103:03'
p52
F51.049999999999997
sS'HLA-DRB103:02'
p53
F90.780000000000001
sS'HLA-DRB103:01'
p54
F73.019999999999996
sS'HLA-DRB111:04'
p55
F56.140000000000001
sS'HLA-DRB111:01'
p56
F17.059999999999999
sS'HLA-DRB111:02'
p57
F121.03
sS'HLA-DRB111:03'
p58
F56.619999999999997
sS'HLA-DQB103:19'
p59
F68.769999999999996
sS'HLA-DPA103:01-DPB104:02'
p60
F73.719999999999999
sS'HLA-DPB111:01'
p61
F8.8000000000000007
sS'HLA-DPB114:01'
p62
F84.680000000000007
sS'HLA-DRB104:11'
p63
F53.090000000000003
sS'HLA-DRA01:01-DRB401:03'
p64
F8.2699999999999996
sS'HLA-DQB103:02'
p65
F28.260000000000002
sS'HLA-DQB103:01'
p66
F37.369999999999997
sS'HLA-DPB101:01'
p67
F91.829999999999998
sS'HLA-DQB106:02'
p68
F76.379999999999995
sS'HLA-DPB104:01'
p69
F137.30000000000001
sS'HLA-DPB104:02'
p70
F55.439999999999998
sS'HLA-DRA01:01-DRB303:01'
p71
F6.8600000000000003
sS'HLA-DRB104:02'
p72
F34.850000000000001
sS'HLA-DRB104:03'
p73
F33.960000000000001
sS'HLA-DQA103:01-DQB102:01'
p74
F8.8000000000000007
sS'HLA-DRB104:01'
p75
F44.579999999999998
sS'HLA-DRB104:06'
p76
F23.059999999999999
sS'HLA-DRB104:07'
p77
F69.430000000000007
sS'HLA-DRB104:04'
p78
F30.219999999999999
sS'HLA-DRB104:05'
p79
F31.52
sS'HLA-DPB120:01'
p80
F44.18
sS'HLA-DQA101:03-DQB106:03'
p81
F301.67000000000002
sS'HLA-DQA101:03-DQB106:01'
p82
F36.039999999999999
sS'HLA-DRB501:01'
p83
F19.039999999999999
sS'HLA-DRB114:02'
p84
F35.030000000000001
sS'HLA-DRB114:01'
p85
F11.4
sS'HLA-DRB501:02'
p86
F12.92
sS'HLA-DQA102:01-DQB102:01'
p87
F62.200000000000003
sS'HLA-DQA102:01-DQB102:02'
p88
F185.41999999999999
sS'HLA-DRA01:01-DRB109:01'
p89
F11.17
sS'HLA-DQA101:04-DQB105:03'
p90
F580.73000000000002
sS'HLA-DRA01:01-DRB103:01'
p91
F28.469999999999999
sS'HLA-DQA101:02-DQB106:02'
p92
F91.120000000000005
sS'HLA-DQA101:02-DQB106:04'
p93
F30.969999999999999
sS'HLA-DRA01:01-DRB113:01'
p94
F5.2699999999999996
sS'HLA-DRB116:01'
p95
F11.35
sS'HLA-DRB116:02'
p96
F50.380000000000003
sS'HLA-DRB113:02'
p97
F20.68
sS'HLA-DRB108:02'
p98
F96.5
sS'HLA-DRB108:03'
p99
F66.930000000000007
sS'HLA-RT11:01'
p100
F10.18
sS'HLA-DRB108:01'
p101
F357.44
sS'HLA-DPA102:01-DPB101:01'
p102
F70.510000000000005
sS'HLA-DQB104:02'
p103
F118.3
sS'HLA-DRB115:03'
p104
F99.180000000000007
sS'HLA-DPA101:03-DPB102:01'
p105
F24.140000000000001
sS'HLA-DPB102:01'
p106
F26.399999999999999
sS'HLA-DQA105:05-DQB103:01'
p107
F79.609999999999999
sS'HLA-DRA01:01-DRB107:01'
p108
F12.68
sS'HLA-DQA105:01-DQB102:01'
p109
F160.21000000000001
sS'HLA-DQA103:01-DQB103:01'
p110
F68.5
sS'HLA-DQA103:01-DQB103:02'
p111
F381.29000000000002
sS'HLA-DRA01:01-DRB108:01'
p112
F47.259999999999998
sS'HLA-DPB103:01'
p113
F30.719999999999999
sS'HLA-DRA01:01-DRB302:02'
p114
F17.510000000000002
sS'HLA-DRA01:01-DRB111:01'
p115
F7.29
sS'HLA-DQA103:02-DQB103:01'
p116
F365.19
sS'HLA-DRB113:01'
p117
F24.68
sS'HLA-DRB112:01'
p118
F106.26000000000001
sS'HLA-DRB112:02'
p119
F51.759999999999998
s.