(dp1
S'HLA-DQA106:01-DQB104:02'
p2
I890671
sS'HLA-DPA101:03-DPB103:01'
p3
I890671
sS'HLA-DRB110:01'
p4
I890671
sS'HLA-DRA01:01-DRB501:01'
p5
I890671
sS'HLA-DRB107:01'
p6
I890671
sS'HLA-DRB115:01'
p7
I890671
sS'HLA-DRB115:02'
p8
I890671
sS'HLA-DRA01:01-DRB301:01'
p9
I890671
sS'HLA-DRA01:01-DRB104:01'
p10
I890671
sS'HLA-DRA01:01-DRB104:04'
p11
I890671
sS'HLA-DRB303:01'
p12
I890671
sS'HLA-DRA01:01-DRB115:01'
p13
I890671
sS'HLA-DQA104:01-DQB104:02'
p14
I890671
sS'HLA-DPB105:01'
p15
I890671
sS'HLA-DRB302:02'
p16
I890671
sS'HLA-DRA01:01-DRB101:01'
p17
I890671
sS'HLA-DRB109:01'
p18
I890671
sS'HLA-DQA102:01-DQB104:02'
p19
I890671
sS'HLA-DQA101:02-DQB105:02'
p20
I890671
sS'HLA-DQA101:02-DQB105:01'
p21
I890671
sS'HLA-DRA01:01-DRB114:54'
p22
I890671
sS'HLA-DPB109:01'
p23
I890671
sS'HLA-DQB105:01'
p24
I890671
sS'HLA-DQB105:02'
p25
I890671
sS'HLA-DQB105:03'
p26
I890671
sS'HLA-DQA101:01-DQB105:01'
p27
I890671
sS'HLA-DQA102:01-DQB103:03'
p28
I890671
sS'HLA-DQA102:01-DQB103:01'
p29
I890671
sS'HLA-DQA103:01-DQB104:01'
p30
I890671
sS'HLA-DRB401:03'
p31
I890671
sS'HLA-DRB401:01'
p32
I890671
sS'HLA-DRB301:01'
p33
I890671
sS'HLA-DQA105:01-DQB104:02'
p34
I890671
sS'HLA-DPA102:02-DPB105:01'
p35
I890671
sS'HLA-DRB113:04'
p36
I890671
sS'HLA-DQA103:02-DQB104:01'
p37
I890671
sS'HLA-DQB102:01'
p38
I890671
sS'HLA-DRB113:03'
p39
I890671
sS'HLA-DQB102:02'
p40
I890671
sS'HLA-DPA102:01-DPB105:01'
p41
I890671
sS'HLA-DPA101:03-DPB104:01'
p42
I890671
sS'HLA-DPA101:03-DPB104:02'
p43
I890671
sS'HLA-DRB101:01'
p44
I890671
sS'HLA-DRB101:03'
p45
I890671
sS'HLA-DRB101:02'
p46
I890671
sS'HLA-DQA105:01-DQB103:02'
p47
I890671
sS'HLA-DQA105:01-DQB103:03'
p48
I890671
sS'HLA-DQA105:01-DQB103:01'
p49
I890671
sS'HLA-DQA103:03-DQB104:02'
p50
I890671
sS'HLA-DRB103:05'
p51
I890671
sS'HLA-DRB103:03'
p52
I890671
sS'HLA-DRB103:02'
p53
I890671
sS'HLA-DRB103:01'
p54
I890671
sS'HLA-DRB111:04'
p55
I890671
sS'HLA-DRB111:01'
p56
I890671
sS'HLA-DRB111:02'
p57
I890671
sS'HLA-DRB111:03'
p58
I890671
sS'HLA-DQB103:19'
p59
I890671
sS'HLA-DPA103:01-DPB104:02'
p60
I890671
sS'HLA-DPB111:01'
p61
I890671
sS'HLA-DPB114:01'
p62
I890671
sS'HLA-DRB104:11'
p63
I890671
sS'HLA-DRA01:01-DRB401:03'
p64
I890671
sS'HLA-DQB103:02'
p65
I890671
sS'HLA-DQB103:01'
p66
I890671
sS'HLA-DPB101:01'
p67
I890671
sS'HLA-DQB106:02'
p68
I890671
sS'HLA-DPB104:01'
p69
I890671
sS'HLA-DPB104:02'
p70
I890671
sS'HLA-DRA01:01-DRB303:01'
p71
I890671
sS'HLA-DRB104:02'
p72
I890671
sS'HLA-DRB104:03'
p73
I890671
sS'HLA-DQA103:01-DQB102:01'
p74
I890671
sS'HLA-DRB104:01'
p75
I890671
sS'HLA-DRB104:06'
p76
I890671
sS'HLA-DRB104:07'
p77
I890671
sS'HLA-DRB104:04'
p78
I890671
sS'HLA-DRB104:05'
p79
I890671
sS'HLA-DPB120:01'
p80
I890671
sS'HLA-DQA101:03-DQB106:03'
p81
I890671
sS'HLA-DQA101:03-DQB106:01'
p82
I890671
sS'HLA-DRB501:01'
p83
I890671
sS'HLA-DRB114:02'
p84
I890671
sS'HLA-DRB114:01'
p85
I890671
sS'HLA-DRB501:02'
p86
I890671
sS'HLA-DQA102:01-DQB102:01'
p87
I890671
sS'HLA-DQA102:01-DQB102:02'
p88
I890671
sS'HLA-DRA01:01-DRB109:01'
p89
I890671
sS'HLA-DQA101:04-DQB105:03'
p90
I890671
sS'HLA-DRA01:01-DRB103:01'
p91
I890671
sS'HLA-DQA101:02-DQB106:02'
p92
I890671
sS'HLA-DQA101:02-DQB106:04'
p93
I890671
sS'HLA-DRA01:01-DRB113:01'
p94
I890671
sS'HLA-DRB116:01'
p95
I890671
sS'HLA-DRB116:02'
p96
I890671
sS'HLA-DRB113:02'
p97
I890671
sS'HLA-DRB108:02'
p98
I890671
sS'HLA-DRB108:03'
p99
I890671
sS'HLA-RT11:01'
p100
I890671
sS'HLA-DRB108:01'
p101
I890671
sS'HLA-DPA102:01-DPB101:01'
p102
I890671
sS'HLA-DQB104:02'
p103
I890671
sS'HLA-DRB115:03'
p104
I890671
sS'HLA-DPA101:03-DPB102:01'
p105
I890671
sS'HLA-DPB102:01'
p106
I890671
sS'HLA-DQA105:05-DQB103:01'
p107
I890671
sS'HLA-DRA01:01-DRB107:01'
p108
I890671
sS'HLA-DQA105:01-DQB102:01'
p109
I890671
sS'HLA-DQA103:01-DQB103:01'
p110
I890671
sS'HLA-DQA103:01-DQB103:02'
p111
I890671
sS'HLA-DRA01:01-DRB108:01'
p112
I890671
sS'HLA-DPB103:01'
p113
I890671
sS'HLA-DRA01:01-DRB302:02'
p114
I890671
sS'HLA-DRA01:01-DRB111:01'
p115
I890671
sS'HLA-DQA103:02-DQB103:01'
p116
I890671
sS'HLA-DRB113:01'
p117
I890671
sS'HLA-DRB112:01'
p118
I890671
sS'HLA-DRB112:02'
p119
I890671
s.